target datalayout = "e-m:e-p270:32:32-p271:32:32-p272:64:64-i64:64-i128:128-f80:128-n8:16:32:64-S128"
target triple = "x86_64-pc-linux-gnu"

%struct.Vec_Int_t_ = type { i32, i32, ptr }
%struct.Aig_Man_t_ = type { ptr, ptr, ptr, ptr, ptr, ptr, ptr, %struct.Aig_Obj_t_, i32, i32, i32, i32, i32, i32, [7 x i32], i32, ptr, i32, ptr, i32, ptr, i32, i32, i32, ptr, i32, i32, i32, i32, i32, ptr, ptr, i32, ptr, ptr, i32, ptr, ptr, i32, i32, i32, ptr, ptr, ptr, ptr, ptr, ptr, ptr, ptr, ptr, ptr, ptr, ptr, ptr, ptr, i32, ptr, ptr, ptr, ptr, i32, i64, i64, i64, ptr, ptr }
%struct.Aig_Obj_t_ = type { %union.anon, ptr, ptr, i64, i32, i32, %union.anon.0 }
%union.anon = type { ptr }
%union.anon.0 = type { ptr }
%struct.Vec_Ptr_t_ = type { i32, i32, ptr }

; Function Attrs: inlinehint nounwind uwtable
define internal ptr @Vec_IntAlloc(i32 noundef %0) #2 {
  %2 = alloca i32, align 4
  %3 = alloca ptr, align 8
  store i32 %0, ptr %2, align 4, !tbaa !10
  call void @llvm.lifetime.start.p0(i64 8, ptr %3) #10
  %4 = call noalias ptr @malloc(i64 noundef 16) #11
  store ptr %4, ptr %3, align 8, !tbaa !8
  %5 = load i32, ptr %2, align 4, !tbaa !10
  %6 = icmp sgt i32 %5, 0
  br i1 %6, label %7, label %11

7:                                                ; preds = %1
  %8 = load i32, ptr %2, align 4, !tbaa !10
  %9 = icmp slt i32 %8, 16
  br i1 %9, label %10, label %11

10:                                               ; preds = %7
  store i32 16, ptr %2, align 4, !tbaa !10
  br label %11

11:                                               ; preds = %10, %7, %1
  %12 = load ptr, ptr %3, align 8, !tbaa !8
  %13 = getelementptr inbounds nuw %struct.Vec_Int_t_, ptr %12, i32 0, i32 1
  store i32 0, ptr %13, align 4, !tbaa !12
  %14 = load i32, ptr %2, align 4, !tbaa !10
  %15 = load ptr, ptr %3, align 8, !tbaa !8
  %16 = getelementptr inbounds nuw %struct.Vec_Int_t_, ptr %15, i32 0, i32 0
  store i32 %14, ptr %16, align 8, !tbaa !47
  %17 = load ptr, ptr %3, align 8, !tbaa !8
  %18 = getelementptr inbounds nuw %struct.Vec_Int_t_, ptr %17, i32 0, i32 0
  %19 = load i32, ptr %18, align 8, !tbaa !47
  %20 = icmp ne i32 %19, 0
  br i1 %20, label %21, label %28

21:                                               ; preds = %11
  %22 = load ptr, ptr %3, align 8, !tbaa !8
  %23 = getelementptr inbounds nuw %struct.Vec_Int_t_, ptr %22, i32 0, i32 0
  %24 = load i32, ptr %23, align 8, !tbaa !47
  %25 = sext i32 %24 to i64
  %26 = mul i64 4, %25
  %27 = call noalias ptr @malloc(i64 noundef %26) #11
  br label %29

28:                                               ; preds = %11
  br label %29

29:                                               ; preds = %28, %21
  %30 = phi ptr [ %27, %21 ], [ null, %28 ]
  %31 = load ptr, ptr %3, align 8, !tbaa !8
  %32 = getelementptr inbounds nuw %struct.Vec_Int_t_, ptr %31, i32 0, i32 2
  store ptr %30, ptr %32, align 8, !tbaa !15
  %33 = load ptr, ptr %3, align 8, !tbaa !8
  call void @llvm.lifetime.end.p0(i64 8, ptr %3) #10
  ret ptr %33
}

; Function Attrs: inlinehint nounwind uwtable
define internal void @Vec_PtrFree(ptr noundef %0) #2 {
  %2 = alloca ptr, align 8
  store ptr %0, ptr %2, align 8, !tbaa !34
  %3 = load ptr, ptr %2, align 8, !tbaa !34
  %4 = getelementptr inbounds nuw %struct.Vec_Ptr_t_, ptr %3, i32 0, i32 2
  %5 = load ptr, ptr %4, align 8, !tbaa !39
  %6 = icmp ne ptr %5, null
  br i1 %6, label %7, label %13

7:                                                ; preds = %1
  %8 = load ptr, ptr %2, align 8, !tbaa !34
  %9 = getelementptr inbounds nuw %struct.Vec_Ptr_t_, ptr %8, i32 0, i32 2
  %10 = load ptr, ptr %9, align 8, !tbaa !39
  call void @free(ptr noundef %10) #10
  %11 = load ptr, ptr %2, align 8, !tbaa !34
  %12 = getelementptr inbounds nuw %struct.Vec_Ptr_t_, ptr %11, i32 0, i32 2
  store ptr null, ptr %12, align 8, !tbaa !39
  br label %14

13:                                               ; preds = %1
  br label %14

14:                                               ; preds = %13, %7
  %15 = load ptr, ptr %2, align 8, !tbaa !34
  %16 = icmp ne ptr %15, null
  br i1 %16, label %17, label %19

17:                                               ; preds = %14
  %18 = load ptr, ptr %2, align 8, !tbaa !34
  call void @free(ptr noundef %18) #10
  store ptr null, ptr %2, align 8, !tbaa !34
  br label %20

19:                                               ; preds = %14
  br label %20

20:                                               ; preds = %19, %17
  ret void
}

; Function Attrs: inlinehint nounwind uwtable
define internal void @Vec_IntWriteEntry(ptr noundef %0, i32 noundef %1, i32 noundef %2) #2 {
  %4 = alloca ptr, align 8
  %5 = alloca i32, align 4
  %6 = alloca i32, align 4
  store ptr %0, ptr %4, align 8, !tbaa !8
  store i32 %1, ptr %5, align 4, !tbaa !10
  store i32 %2, ptr %6, align 4, !tbaa !10
  %7 = load i32, ptr %6, align 4, !tbaa !10
  %8 = load ptr, ptr %4, align 8, !tbaa !8
  %9 = getelementptr inbounds nuw %struct.Vec_Int_t_, ptr %8, i32 0, i32 2
  %10 = load ptr, ptr %9, align 8, !tbaa !15
  %11 = load i32, ptr %5, align 4, !tbaa !10
  %12 = sext i32 %11 to i64
  %13 = getelementptr inbounds i32, ptr %10, i64 %12
  store i32 %7, ptr %13, align 4, !tbaa !10
  ret void
}

; Function Attrs: inlinehint nounwind uwtable
define internal i32 @Aig_ObjId(ptr noundef %0) #2 {
  %2 = alloca ptr, align 8
  store ptr %0, ptr %2, align 8, !tbaa !28
  %3 = load ptr, ptr %2, align 8, !tbaa !28
  %4 = getelementptr inbounds nuw %struct.Aig_Obj_t_, ptr %3, i32 0, i32 5
  %5 = load i32, ptr %4, align 4, !tbaa !40
  ret i32 %5
}

; Function Attrs: inlinehint nounwind uwtable
define internal ptr @Vec_PtrEntry(ptr noundef %0, i32 noundef %1) #2 {
  %3 = alloca ptr, align 8
  %4 = alloca i32, align 4
  store ptr %0, ptr %3, align 8, !tbaa !34
  store i32 %1, ptr %4, align 4, !tbaa !10
  %5 = load ptr, ptr %3, align 8, !tbaa !34
  %6 = getelementptr inbounds nuw %struct.Vec_Ptr_t_, ptr %5, i32 0, i32 2
  %7 = load ptr, ptr %6, align 8, !tbaa !39
  %8 = load i32, ptr %4, align 4, !tbaa !10
  %9 = sext i32 %8 to i64
  %10 = getelementptr inbounds ptr, ptr %7, i64 %9
  %11 = load ptr, ptr %10, align 8, !tbaa !38
  ret ptr %11
}

; Function Attrs: inlinehint nounwind uwtable
define internal i32 @Vec_PtrSize(ptr noundef %0) #2 {
  %2 = alloca ptr, align 8
  store ptr %0, ptr %2, align 8, !tbaa !34
  %3 = load ptr, ptr %2, align 8, !tbaa !34
  %4 = getelementptr inbounds nuw %struct.Vec_Ptr_t_, ptr %3, i32 0, i32 1
  %5 = load i32, ptr %4, align 4, !tbaa !35
  ret i32 %5
}

; Function Attrs: inlinehint nounwind uwtable
define internal ptr @Vec_IntStart(i32 noundef %0) #2 {
  %2 = alloca i32, align 4
  %3 = alloca ptr, align 8
  store i32 %0, ptr %2, align 4, !tbaa !10
  call void @llvm.lifetime.start.p0(i64 8, ptr %3) #10
  %4 = load i32, ptr %2, align 4, !tbaa !10
  %5 = call ptr @Vec_IntAlloc(i32 noundef %4)
  store ptr %5, ptr %3, align 8, !tbaa !8
  %6 = load i32, ptr %2, align 4, !tbaa !10
  %7 = load ptr, ptr %3, align 8, !tbaa !8
  %8 = getelementptr inbounds nuw %struct.Vec_Int_t_, ptr %7, i32 0, i32 1
  store i32 %6, ptr %8, align 4, !tbaa !12
  %9 = load ptr, ptr %3, align 8, !tbaa !8
  %10 = getelementptr inbounds nuw %struct.Vec_Int_t_, ptr %9, i32 0, i32 2
  %11 = load ptr, ptr %10, align 8, !tbaa !15
  %12 = icmp ne ptr %11, null
  br i1 %12, label %13, label %20

13:                                               ; preds = %1
  %14 = load ptr, ptr %3, align 8, !tbaa !8
  %15 = getelementptr inbounds nuw %struct.Vec_Int_t_, ptr %14, i32 0, i32 2
  %16 = load ptr, ptr %15, align 8, !tbaa !15
  %17 = load i32, ptr %2, align 4, !tbaa !10
  %18 = sext i32 %17 to i64
  %19 = mul i64 4, %18
  call void @llvm.memset.p0.i64(ptr align 4 %16, i8 0, i64 %19, i1 false)
  br label %20

20:                                               ; preds = %13, %1
  %21 = load ptr, ptr %3, align 8, !tbaa !8
  call void @llvm.lifetime.end.p0(i64 8, ptr %3) #10
  ret ptr %21
}

; Function Attrs: inlinehint nounwind uwtable
define internal i32 @Aig_ManObjNumMax(ptr noundef %0) #2 {
  %2 = alloca ptr, align 8
  store ptr %0, ptr %2, align 8, !tbaa !3
  %3 = load ptr, ptr %2, align 8, !tbaa !3
  %4 = getelementptr inbounds nuw %struct.Aig_Man_t_, ptr %3, i32 0, i32 4
  %5 = load ptr, ptr %4, align 8, !tbaa !16
  %6 = call i32 @Vec_PtrSize(ptr noundef %5)
  ret i32 %6
}

; Function Attrs: nounwind uwtable
define ptr @Aig_ManPartitionDfs(ptr noundef %0, i32 noundef %1, i32 noundef %2) #0 {
  %4 = alloca ptr, align 8
  %5 = alloca i32, align 4
  %6 = alloca i32, align 4
  %7 = alloca ptr, align 8
  %8 = alloca ptr, align 8
  %9 = alloca ptr, align 8
  %10 = alloca i32, align 4
  %11 = alloca i32, align 4
  store ptr %0, ptr %4, align 8, !tbaa !3
  store i32 %1, ptr %5, align 4, !tbaa !10
  store i32 %2, ptr %6, align 4, !tbaa !10
  call void @llvm.lifetime.start.p0(i64 8, ptr %7) #10
  call void @llvm.lifetime.start.p0(i64 8, ptr %8) #10
  call void @llvm.lifetime.start.p0(i64 8, ptr %9) #10
  call void @llvm.lifetime.start.p0(i64 4, ptr %10) #10
  call void @llvm.lifetime.start.p0(i64 4, ptr %11) #10
  store i32 0, ptr %11, align 4, !tbaa !10
  %12 = load ptr, ptr %4, align 8, !tbaa !3
  %13 = call i32 @Aig_ManObjNumMax(ptr noundef %12)
  %14 = call ptr @Vec_IntStart(i32 noundef %13)
  store ptr %14, ptr %7, align 8, !tbaa !8
  %15 = load i32, ptr %6, align 4, !tbaa !10
  %16 = icmp ne i32 %15, 0
  br i1 %16, label %17, label %43

17:                                               ; preds = %3
  %18 = load ptr, ptr %4, align 8, !tbaa !3
  %19 = call ptr @Aig_ManDfsPreorder(ptr noundef %18, i32 noundef 1)
  store ptr %19, ptr %8, align 8, !tbaa !34
  store i32 0, ptr %10, align 4, !tbaa !10
  br label %20

20:                                               ; preds = %39, %17
  %21 = load i32, ptr %10, align 4, !tbaa !10
  %22 = load ptr, ptr %8, align 8, !tbaa !34
  %23 = call i32 @Vec_PtrSize(ptr noundef %22)
  %24 = icmp slt i32 %21, %23
  br i1 %24, label %25, label %29

25:                                               ; preds = %20
  %26 = load ptr, ptr %8, align 8, !tbaa !34
  %27 = load i32, ptr %10, align 4, !tbaa !10
  %28 = call ptr @Vec_PtrEntry(ptr noundef %26, i32 noundef %27)
  store ptr %28, ptr %9, align 8, !tbaa !28
  br label %29

29:                                               ; preds = %25, %20
  %30 = phi i1 [ false, %20 ], [ true, %25 ]
  br i1 %30, label %31, label %42

31:                                               ; preds = %29
  %32 = load ptr, ptr %7, align 8, !tbaa !8
  %33 = load ptr, ptr %9, align 8, !tbaa !28
  %34 = call i32 @Aig_ObjId(ptr noundef %33)
  %35 = load i32, ptr %11, align 4, !tbaa !10
  %36 = add nsw i32 %35, 1
  store i32 %36, ptr %11, align 4, !tbaa !10
  %37 = load i32, ptr %5, align 4, !tbaa !10
  %38 = sdiv i32 %35, %37
  call void @Vec_IntWriteEntry(ptr noundef %32, i32 noundef %34, i32 noundef %38)
  br label %39

39:                                               ; preds = %31
  %40 = load i32, ptr %10, align 4, !tbaa !10
  %41 = add nsw i32 %40, 1
  store i32 %41, ptr %10, align 4, !tbaa !10
  br label %20, !llvm.loop !42

42:                                               ; preds = %29
  br label %70

43:                                               ; preds = %3
  %44 = load ptr, ptr %4, align 8, !tbaa !3
  %45 = call ptr @Aig_ManDfs(ptr noundef %44, i32 noundef 1)
  store ptr %45, ptr %8, align 8, !tbaa !34
  %46 = load ptr, ptr %8, align 8, !tbaa !34
  %47 = call i32 @Vec_PtrSize(ptr noundef %46)
  %48 = sub nsw i32 %47, 1
  store i32 %48, ptr %10, align 4, !tbaa !10
  br label %49

49:                                               ; preds = %66, %43
  %50 = load i32, ptr %10, align 4, !tbaa !10
  %51 = icmp sge i32 %50, 0
  br i1 %51, label %52, label %56

52:                                               ; preds = %49
  %53 = load ptr, ptr %8, align 8, !tbaa !34
  %54 = load i32, ptr %10, align 4, !tbaa !10
  %55 = call ptr @Vec_PtrEntry(ptr noundef %53, i32 noundef %54)
  store ptr %55, ptr %9, align 8, !tbaa !28
  br label %56

56:                                               ; preds = %52, %49
  %57 = phi i1 [ false, %49 ], [ true, %52 ]
  br i1 %57, label %58, label %69

58:                                               ; preds = %56
  %59 = load ptr, ptr %7, align 8, !tbaa !8
  %60 = load ptr, ptr %9, align 8, !tbaa !28
  %61 = call i32 @Aig_ObjId(ptr noundef %60)
  %62 = load i32, ptr %11, align 4, !tbaa !10
  %63 = add nsw i32 %62, 1
  store i32 %63, ptr %11, align 4, !tbaa !10
  %64 = load i32, ptr %5, align 4, !tbaa !10
  %65 = sdiv i32 %62, %64
  call void @Vec_IntWriteEntry(ptr noundef %59, i32 noundef %61, i32 noundef %65)
  br label %66

66:                                               ; preds = %58
  %67 = load i32, ptr %10, align 4, !tbaa !10
  %68 = add nsw i32 %67, -1
  store i32 %68, ptr %10, align 4, !tbaa !10
  br label %49, !llvm.loop !43

69:                                               ; preds = %56
  br label %70

70:                                               ; preds = %69, %42
  %71 = load ptr, ptr %8, align 8, !tbaa !34
  call void @Vec_PtrFree(ptr noundef %71)
  %72 = load ptr, ptr %7, align 8, !tbaa !8
  call void @llvm.lifetime.end.p0(i64 4, ptr %11) #10
  call void @llvm.lifetime.end.p0(i64 4, ptr %10) #10
  call void @llvm.lifetime.end.p0(i64 8, ptr %9) #10
  call void @llvm.lifetime.end.p0(i64 8, ptr %8) #10
  call void @llvm.lifetime.end.p0(i64 8, ptr %7) #10
  ret ptr %72
}