; Function Attrs: nounwind uwtable
define noalias noundef ptr @Aig_ManPartitionDfs(ptr noundef %0, i32 noundef %1, i32 noundef %2) local_unnamed_addr #2 {
  %4 = getelementptr i8, ptr %0, i64 32
  %.val29 = load ptr, ptr %4, align 8, !tbaa !3
  %5 = getelementptr i8, ptr %.val29, i64 4
  %.val29.val = load i32, ptr %5, align 4, !tbaa !21
  %6 = tail call noalias dereferenceable_or_null(16) ptr @malloc(i64 noundef 16) #17
  %7 = add i32 %.val29.val, -1
  %or.cond.i.i = icmp ult i32 %7, 15
  %spec.store.select.i.i = select i1 %or.cond.i.i, i32 16, i32 %.val29.val
  %8 = getelementptr inbounds nuw i8, ptr %6, i64 4
  store i32 %spec.store.select.i.i, ptr %6, align 8, !tbaa !23
  %.not.i.i = icmp eq i32 %spec.store.select.i.i, 0
  br i1 %.not.i.i, label %Vec_IntAlloc.exit.thread.i, label %Vec_IntAlloc.exit.i

Vec_IntAlloc.exit.thread.i:                       ; preds = %3
  %9 = getelementptr inbounds nuw i8, ptr %6, i64 8
  store ptr null, ptr %9, align 8, !tbaa !25
  store i32 %.val29.val, ptr %8, align 4, !tbaa !26
  br label %Vec_IntStart.exit

Vec_IntAlloc.exit.i:                              ; preds = %3
  %10 = sext i32 %spec.store.select.i.i to i64
  %11 = shl nsw i64 %10, 2
  %12 = tail call noalias ptr @malloc(i64 noundef %11) #17
  %13 = getelementptr inbounds nuw i8, ptr %6, i64 8
  store ptr %12, ptr %13, align 8, !tbaa !25
  store i32 %.val29.val, ptr %8, align 4, !tbaa !26
  %.not.i = icmp eq ptr %12, null
  br i1 %.not.i, label %Vec_IntStart.exit, label %14

14:                                               ; preds = %Vec_IntAlloc.exit.i
  %15 = sext i32 %.val29.val to i64
  %16 = shl nsw i64 %15, 2
  tail call void @llvm.memset.p0.i64(ptr nonnull align 4 %12, i8 0, i64 %16, i1 false)
  br label %Vec_IntStart.exit

Vec_IntStart.exit:                                ; preds = %Vec_IntAlloc.exit.thread.i, %Vec_IntAlloc.exit.i, %14
  %.val34 = phi ptr [ null, %Vec_IntAlloc.exit.thread.i ], [ null, %Vec_IntAlloc.exit.i ], [ %12, %14 ]
  %.not = icmp eq i32 %2, 0
  br i1 %.not, label %31, label %17

17:                                               ; preds = %Vec_IntStart.exit
  %18 = tail call ptr @Aig_ManDfsPreorder(ptr noundef nonnull %0, i32 noundef 1) #18
  %19 = getelementptr i8, ptr %18, i64 4
  %.val2838 = load i32, ptr %19, align 4, !tbaa !21
  %20 = icmp sgt i32 %.val2838, 0
  br i1 %20, label %.lr.ph, label %.critedge

.lr.ph:                                           ; preds = %17
  %21 = getelementptr i8, ptr %18, i64 8
  %.val31 = load ptr, ptr %21, align 8, !tbaa !33
  br label %22

22:                                               ; preds = %.lr.ph, %22
  %indvars.iv = phi i64 [ 0, %.lr.ph ], [ %indvars.iv.next, %22 ]
  %indvars45 = trunc i64 %indvars.iv to i32
  %23 = getelementptr inbounds nuw ptr, ptr %.val31, i64 %indvars.iv
  %24 = load ptr, ptr %23, align 8, !tbaa !32
  %25 = getelementptr i8, ptr %24, i64 36
  %.val33 = load i32, ptr %25, align 4, !tbaa !34
  %indvars.iv.next = add nuw nsw i64 %indvars.iv, 1
  %26 = sdiv i32 %indvars45, %1
  %27 = sext i32 %.val33 to i64
  %28 = getelementptr inbounds i32, ptr %.val34, i64 %27
  store i32 %26, ptr %28, align 4, !tbaa !35
  %.val28 = load i32, ptr %19, align 4, !tbaa !21
  %29 = sext i32 %.val28 to i64
  %30 = icmp slt i64 %indvars.iv.next, %29
  br i1 %30, label %22, label %.critedge, !llvm.loop !38

31:                                               ; preds = %Vec_IntStart.exit
  %32 = tail call ptr @Aig_ManDfs(ptr noundef nonnull %0, i32 noundef 1) #18
  %33 = getelementptr i8, ptr %32, i64 4
  %.val = load i32, ptr %33, align 4, !tbaa !21
  %34 = icmp sgt i32 %.val, 0
  br i1 %34, label %.lr.ph43, label %.critedge

.lr.ph43:                                         ; preds = %31
  %35 = getelementptr i8, ptr %32, i64 8
  %.val30 = load ptr, ptr %35, align 8, !tbaa !33
  %36 = zext nneg i32 %.val to i64
  br label %37

37:                                               ; preds = %.lr.ph43, %37
  %indvars.iv48 = phi i64 [ %36, %.lr.ph43 ], [ %indvars.iv.next49, %37 ]
  %.142 = phi i32 [ 0, %.lr.ph43 ], [ %41, %37 ]
  %indvars.iv.next49 = add nsw i64 %indvars.iv48, -1
  %38 = getelementptr inbounds nuw ptr, ptr %.val30, i64 %indvars.iv.next49
  %39 = load ptr, ptr %38, align 8, !tbaa !32
  %40 = getelementptr i8, ptr %39, i64 36
  %.val32 = load i32, ptr %40, align 4, !tbaa !34
  %41 = add nuw nsw i32 %.142, 1
  %42 = sdiv i32 %.142, %1
  %43 = sext i32 %.val32 to i64
  %44 = getelementptr inbounds i32, ptr %.val34, i64 %43
  store i32 %42, ptr %44, align 4, !tbaa !35
  %exitcond.not = icmp eq i32 %41, %.val
  br i1 %exitcond.not, label %.critedge, label %37, !llvm.loop !39

.critedge:                                        ; preds = %22, %37, %17, %31
  %.027 = phi ptr [ %32, %31 ], [ %18, %17 ], [ %32, %37 ], [ %18, %22 ]
  %45 = getelementptr inbounds nuw i8, ptr %.027, i64 8
  %46 = load ptr, ptr %45, align 8, !tbaa !33
  %.not.i36 = icmp eq ptr %46, null
  br i1 %.not.i36, label %Vec_PtrFree.exit, label %47

47:                                               ; preds = %.critedge
  tail call void @free(ptr noundef nonnull %46) #18
  br label %Vec_PtrFree.exit

Vec_PtrFree.exit:                                 ; preds = %.critedge, %47
  tail call void @free(ptr noundef nonnull %.027) #18
  ret ptr %6
}